; Function Attrs: mustprogress nofree norecurse nosync nounwind memory(readwrite, inaccessiblemem: none) uwtable
define noundef zeroext i1 @_ZN8QuantLib21MarketModelCashRebate12nextTimeStepERKNS_10CurveStateERSt6vectorImSaImEERS4_IS4_INS_23MarketModelMultiProduct8CashFlowESaIS9_EESaISB_EE(ptr nocapture noundef nonnull align 8 dereferenceable(200) %this, ptr nocapture nonnull readnone align 1 %0, ptr nocapture noundef nonnull readonly align 8 dereferenceable(24) %numberCashFlowsThisStep, ptr nocapture noundef nonnull readonly align 8 dereferenceable(24) %genCashFlows) unnamed_addr #10 align 2 {
entry:
  %numberOfProducts_ = getelementptr inbounds nuw i8, ptr %this, i64 184
  %1 = load i64, ptr %numberOfProducts_, align 8, !tbaa !35
  %cmp11.not = icmp eq i64 %1, 0
  br i1 %cmp11.not, label %entry.for.cond.cleanup_crit_edge, label %for.body.lr.ph

entry.for.cond.cleanup_crit_edge:                 ; preds = %entry
  %currentIndex_8.phi.trans.insert = getelementptr inbounds nuw i8, ptr %this, i64 192
  %.pre = load i64, ptr %currentIndex_8.phi.trans.insert, align 8, !tbaa !55
  br label %for.cond.cleanup

for.body.lr.ph:                                   ; preds = %entry
  %2 = load ptr, ptr %numberCashFlowsThisStep, align 8, !tbaa !29
  %currentIndex_ = getelementptr inbounds nuw i8, ptr %this, i64 192
  %3 = load ptr, ptr %genCashFlows, align 8, !tbaa !67
  %amounts_ = getelementptr inbounds nuw i8, ptr %this, i64 160
  %4 = load ptr, ptr %amounts_, align 8, !tbaa !33
  %columns_.i.i = getelementptr inbounds nuw i8, ptr %this, i64 176
  br label %for.body

for.cond.cleanup:                                 ; preds = %for.body, %entry.for.cond.cleanup_crit_edge
  %5 = phi i64 [ %.pre, %entry.for.cond.cleanup_crit_edge ], [ %6, %for.body ]
  %currentIndex_8 = getelementptr inbounds nuw i8, ptr %this, i64 192
  %inc9 = add i64 %5, 1
  store i64 %inc9, ptr %currentIndex_8, align 8, !tbaa !55
  ret i1 true

for.body:                                         ; preds = %for.body.lr.ph, %for.body
  %i.012 = phi i64 [ 0, %for.body.lr.ph ], [ %inc, %for.body ]
  %add.ptr.i = getelementptr inbounds nuw i64, ptr %2, i64 %i.012
  store i64 1, ptr %add.ptr.i, align 8, !tbaa !34
  %6 = load i64, ptr %currentIndex_, align 8, !tbaa !55
  %add.ptr.i7 = getelementptr inbounds nuw %"class.std::vector.20", ptr %3, i64 %i.012
  %7 = load ptr, ptr %add.ptr.i7, align 8, !tbaa !69
  store i64 %6, ptr %7, align 8, !tbaa !71
  %8 = load i64, ptr %columns_.i.i, align 8, !tbaa !51
  %mul.i.i = mul i64 %8, %i.012
  %add.ptr.i.i = getelementptr inbounds nuw double, ptr %4, i64 %mul.i.i
  %arrayidx = getelementptr inbounds nuw double, ptr %add.ptr.i.i, i64 %6
  %9 = load double, ptr %arrayidx, align 8, !tbaa !74
  %amount = getelementptr inbounds nuw i8, ptr %7, i64 8
  store double %9, ptr %amount, align 8, !tbaa !75
  %inc = add nuw i64 %i.012, 1
  %10 = load i64, ptr %numberOfProducts_, align 8, !tbaa !35
  %cmp = icmp ult i64 %inc, %10
  br i1 %cmp, label %for.body, label %for.cond.cleanup, !llvm.loop !76
}